(dp1
S'output'
p2
S"<type 'exceptions.AttributeError'> 'Query' object has no attribute 'type'"
p3
sS'layer'
p4
S'/home/cool/Documents/ucsc/web2py/applications/lifeinvader/controllers/default.py'
p5
sS'code'
p6
S'# -*- coding: utf-8 -*-\n# this file is released under public domain and you can use without limitations\n\n# -------------------------------------------------------------------------\n# This is a sample controller\n# - index is the default action of any application\n# - user is required for authentication and authorization\n# - download is for downloading files uploaded in the db (does streaming)\n# -------------------------------------------------------------------------\n\n\ndef index():\n    """\n    example action using the internationalization operator T and flash\n    rendered by views/default/index.html or views/generic.html\n\n    if you need a simple wiki simply replace the two lines below with:\n    return auth.wiki()\n    """\n    images = db().select(db.image.ALL, orderby=~db.image.posted_on, limitby=(0, 20))\n    return dict(get_username_from_email = get_username_from_email, get_firstname_from_email = get_firstname_from_email, images = images)\n\n\ndef user():\n    """\n    exposes:\n    http://..../[app]/default/user/login\n    http://..../[app]/default/user/logout\n    http://..../[app]/default/user/register\n    http://..../[app]/default/user/profile\n    http://..../[app]/default/user/retrieve_password\n    http://..../[app]/default/user/change_password\n    http://..../[app]/default/user/bulk_register\n    use @auth.requires_login()\n        @auth.requires_membership(\'group name\')\n        @auth.requires_permission(\'read\',\'table name\',record_id)\n    to decorate functions that need access control\n    also notice there is http://..../[app]/appadmin/manage/auth to allow administrator to manage users\n    """\n    return dict(form=auth())\n\ndef get_username_from_email(email):\n    u = db(db.auth_user.email == email).select().first()\n    if u is None:\n        return \'None\'\n    else:\n        return \' \'.join([u.first_name, u.last_name])\n\ndef get_firstname_from_email(email):\n    u = db(db.auth_user.email == email).select().first()\n    if u is None:\n        return \'None\'\n    else:\n        return u.first_name\n\n\n@cache.action()\ndef download():\n    """\n    allows downloading of uploaded files\n    http://..../[app]/default/download/[filename]\n    """\n    return response.download(request, db)\n\n\ndef call():\n    """\n    exposes services. for example:\n    http://..../[app]/default/call/jsonrpc\n    decorate with @services.jsonrpc the functions to expose\n    supports xml, json, xmlrpc, jsonrpc, amfrpc, rss, csv\n    """\n    return service()\n\ndef profile():\n\n    images = db().select(db.image.author == auth.user.email, orderby=~db.image.posted_on, limitby=(0, 20))\n    return dict(get_username_from_email=get_username_from_email, get_firstname_from_email=get_firstname_from_email,\n                images=images)\n\n@auth.requires_login()\ndef upload():\n    form = SQLFORM(db.image)\n    if form.process().accepted:\n        session.flash = T(\'Image Posted.\')\n        redirect(URL(\'default\',\'index\'))\n    return dict(form=form)\n\n\n\n\nresponse._vars=response._caller(profile)\n'
p7
sS'snapshot'
p8
(dp9
sS'traceback'
p10
S'Traceback (most recent call last):\n  File "/home/cool/Documents/ucsc/web2py/gluon/restricted.py", line 227, in restricted\n    exec ccode in environment\n  File "/home/cool/Documents/ucsc/web2py/applications/lifeinvader/controllers/default.py", line 92, in <module>\n  File "/home/cool/Documents/ucsc/web2py/gluon/globals.py", line 417, in <lambda>\n    self._caller = lambda f: f()\n  File "/home/cool/Documents/ucsc/web2py/applications/lifeinvader/controllers/default.py", line 77, in profile\n    images = db().select(db.image.author == auth.user.email, orderby=~db.image.posted_on, limitby=(0, 20))\n  File "/home/cool/Documents/ucsc/web2py/gluon/packages/dal/pydal/objects.py", line 2020, in select\n    return adapter.select(self.query, fields, attributes)\n  File "/home/cool/Documents/ucsc/web2py/gluon/packages/dal/pydal/adapters/sqlite.py", line 123, in select\n    return super(SQLiteAdapter, self).select(query, fields, attributes)\n  File "/home/cool/Documents/ucsc/web2py/gluon/packages/dal/pydal/adapters/base.py", line 1283, in select\n    sql = self._select(query, fields, attributes)\n  File "/home/cool/Documents/ucsc/web2py/gluon/packages/dal/pydal/adapters/base.py", line 1110, in _select\n    sql_f = \', \'.join(map(geoexpand, fields))\n  File "/home/cool/Documents/ucsc/web2py/gluon/packages/dal/pydal/adapters/base.py", line 1107, in geoexpand\n    if isinstance(field.type,str) and field.type.startswith(\'geo\') and isinstance(field, Field):\nAttributeError: \'Query\' object has no attribute \'type\'\n'
p11
s.